target datalayout = "e-m:e-p270:32:32-p271:32:32-p272:64:64-i64:64-i128:128-f80:128-n8:16:32:64-S128"
target triple = "x86_64-pc-linux-gnu"

%struct.strvec = type { ptr, i64, i64 }
%struct.range_set = type { i32, i32, ptr }
%struct.rev_info = type { ptr, %struct.object_array, ptr, %struct.object_array, %struct.rev_cmdline_info, %struct.list_objects_filter_options, %struct.ref_exclusions, ptr, ptr, ptr, %struct.pathspec, i32, i32, i32, i32, i64, i32, i32, %struct.date_mode, i32, i32, i32, i32, ptr, i32, i32, ptr, ptr, i32, ptr, ptr, %struct.ident_split, ptr, i32, ptr, ptr, ptr, i32, i32, i32, ptr, %struct.grep_opt, ptr, i32, i32, i64, i64, i64, i32, i32, ptr, ptr, ptr, %struct.diff_options, %struct.diff_options, ptr, %struct.decoration, %struct.decoration, %struct.decoration, %struct.display_notes_opt, ptr, ptr, ptr, ptr, ptr, i32, ptr, i32, i32, i32, %struct.decoration, ptr, ptr, ptr, ptr, ptr, ptr, ptr, i32, ptr, i32, ptr, %struct.oidset }
%struct.object_array = type { i32, i32, ptr }
%struct.rev_cmdline_info = type { i32, i32, ptr }
%struct.list_objects_filter_options = type { %struct.strbuf, i32, i8, ptr, i64, i64, i32, i64, i64, ptr }
%struct.strbuf = type { i64, i64, ptr }
%struct.ref_exclusions = type { %struct.string_list, %struct.strvec, i8 }
%struct.string_list = type { ptr, i64, i64, i8, ptr }
%struct.pathspec = type { i32, i8, i32, i32, ptr }
%struct.date_mode = type { i32, i32, ptr }
%struct.ident_split = type { ptr, ptr, ptr, ptr, ptr, ptr, ptr, ptr }
%struct.grep_opt = type { ptr, ptr, ptr, ptr, ptr, ptr, i32, i32, i32, i32, i32, i32, i32, i32, i32, i32, i32, i32, i32, i32, i32, i32, i32, i32, i32, i32, i32, i32, i32, i32, i32, i32, [9 x [75 x i8]], i32, i32, i32, i32, i32, i32, i32, ptr, ptr, ptr }
%struct.diff_options = type { ptr, ptr, i32, i32, ptr, i32, ptr, i64, i64, ptr, ptr, ptr, ptr, %struct.diff_flags, i32, i32, i32, i32, i32, i32, i32, i32, i32, i32, i32, i32, i32, i32, i32, i32, i32, i32, i32, i32, i32, i32, ptr, i32, ptr, i32, i32, ptr, i64, i64, i32, i32, i32, i32, ptr, i32, i32, ptr, i32, i32, ptr, ptr, i32, [3 x i8], %struct.pathspec, ptr, ptr, ptr, ptr, ptr, ptr, ptr, ptr, i32, ptr, i32, i32, ptr, ptr, i32 }
%struct.diff_flags = type { i32, i32, i32, i32, i32, i32, i32, i32, i32, i32, i32, i32, i32, i32, i32, i32, i32, i32, i32, i32, i32, i32, i32, i32, i32, i32, i32, i32, i32, i32, i32, i32, i32, i32, i32 }
%struct.display_notes_opt = type { i32, %struct.string_list }
%struct.decoration = type { ptr, i32, i32, ptr }
%struct.oidset = type { %struct.kh_oid_set }
%struct.kh_oid_set = type { i32, i32, i32, i32, ptr, ptr, ptr }
%struct.line_log_data = type { ptr, ptr, %struct.range_set, ptr, %struct.diff_ranges }
%struct.diff_ranges = type { %struct.range_set, %struct.range_set }
%struct.commit = type { %struct.object, i64, ptr, ptr, i32 }
%struct.object = type { i32, %struct.object_id }
%struct.object_id = type { [32 x i8], i32 }

; Function Attrs: nounwind uwtable
define internal void @diff_ranges_release(ptr noundef %0) #0 {
  %2 = alloca ptr, align 8
  store ptr %0, ptr %2, align 8, !tbaa !188
  %3 = load ptr, ptr %2, align 8, !tbaa !188
  %4 = getelementptr inbounds nuw %struct.diff_ranges, ptr %3, i32 0, i32 0
  call void @range_set_release(ptr noundef %4)
  %5 = load ptr, ptr %2, align 8, !tbaa !188
  %6 = getelementptr inbounds nuw %struct.diff_ranges, ptr %5, i32 0, i32 1
  call void @range_set_release(ptr noundef %6)
  ret void
}

; Function Attrs: nounwind uwtable
define dso_local void @range_set_release(ptr noundef %0) #0 {
  %2 = alloca ptr, align 8
  store ptr %0, ptr %2, align 8, !tbaa !4
  br label %3

3:                                                ; preds = %1
  %4 = load ptr, ptr %2, align 8, !tbaa !4
  %5 = getelementptr inbounds nuw %struct.range_set, ptr %4, i32 0, i32 2
  %6 = load ptr, ptr %5, align 8, !tbaa !16
  call void @free(ptr noundef %6) #9
  %7 = load ptr, ptr %2, align 8, !tbaa !4
  %8 = getelementptr inbounds nuw %struct.range_set, ptr %7, i32 0, i32 2
  store ptr null, ptr %8, align 8, !tbaa !16
  br label %9

9:                                                ; preds = %3
  %10 = load ptr, ptr %2, align 8, !tbaa !4
  %11 = getelementptr inbounds nuw %struct.range_set, ptr %10, i32 0, i32 1
  store i32 0, ptr %11, align 4, !tbaa !11
  %12 = load ptr, ptr %2, align 8, !tbaa !4
  %13 = getelementptr inbounds nuw %struct.range_set, ptr %12, i32 0, i32 0
  store i32 0, ptr %13, align 8, !tbaa !15
  ret void
}

; Function Attrs: nounwind uwtable
define internal void @line_log_data_clear(ptr noundef %0) #0 {
  %2 = alloca ptr, align 8
  store ptr %0, ptr %2, align 8, !tbaa !81
  %3 = load ptr, ptr %2, align 8, !tbaa !81
  %4 = getelementptr inbounds nuw %struct.line_log_data, ptr %3, i32 0, i32 2
  call void @range_set_release(ptr noundef %4)
  %5 = load ptr, ptr %2, align 8, !tbaa !81
  %6 = getelementptr inbounds nuw %struct.line_log_data, ptr %5, i32 0, i32 1
  %7 = load ptr, ptr %6, align 8, !tbaa !135
  call void @free(ptr noundef %7) #9
  %8 = load ptr, ptr %2, align 8, !tbaa !81
  %9 = getelementptr inbounds nuw %struct.line_log_data, ptr %8, i32 0, i32 3
  %10 = load ptr, ptr %9, align 8, !tbaa !187
  %11 = icmp ne ptr %10, null
  br i1 %11, label %12, label %16

12:                                               ; preds = %1
  %13 = load ptr, ptr %2, align 8, !tbaa !81
  %14 = getelementptr inbounds nuw %struct.line_log_data, ptr %13, i32 0, i32 3
  %15 = load ptr, ptr %14, align 8, !tbaa !187
  call void @diff_free_filepair(ptr noundef %15)
  br label %16

16:                                               ; preds = %12, %1
  %17 = load ptr, ptr %2, align 8, !tbaa !81
  %18 = getelementptr inbounds nuw %struct.line_log_data, ptr %17, i32 0, i32 4
  call void @diff_ranges_release(ptr noundef %18)
  ret void
}

; Function Attrs: nounwind uwtable
define internal void @free_line_log_data(ptr noundef %0) #0 {
  %2 = alloca ptr, align 8
  %3 = alloca ptr, align 8
  store ptr %0, ptr %2, align 8, !tbaa !81
  br label %4

4:                                                ; preds = %7, %1
  %5 = load ptr, ptr %2, align 8, !tbaa !81
  %6 = icmp ne ptr %5, null
  br i1 %6, label %7, label %14

7:                                                ; preds = %4
  call void @llvm.lifetime.start.p0(i64 8, ptr %3) #9
  %8 = load ptr, ptr %2, align 8, !tbaa !81
  %9 = getelementptr inbounds nuw %struct.line_log_data, ptr %8, i32 0, i32 0
  %10 = load ptr, ptr %9, align 8, !tbaa !131
  store ptr %10, ptr %3, align 8, !tbaa !81
  %11 = load ptr, ptr %2, align 8, !tbaa !81
  call void @line_log_data_clear(ptr noundef %11)
  %12 = load ptr, ptr %2, align 8, !tbaa !81
  call void @free(ptr noundef %12) #9
  %13 = load ptr, ptr %3, align 8, !tbaa !81
  store ptr %13, ptr %2, align 8, !tbaa !81
  call void @llvm.lifetime.end.p0(i64 8, ptr %3) #9
  br label %4, !llvm.loop !138

14:                                               ; preds = %4
  ret void
}

; Function Attrs: nounwind uwtable
define internal void @clear_commit_line_range(ptr noundef %0, ptr noundef %1) #0 {
  %3 = alloca ptr, align 8
  %4 = alloca ptr, align 8
  %5 = alloca ptr, align 8
  %6 = alloca i32, align 4
  store ptr %0, ptr %3, align 8, !tbaa !26
  store ptr %1, ptr %4, align 8, !tbaa !32
  call void @llvm.lifetime.start.p0(i64 8, ptr %5) #9
  %7 = load ptr, ptr %3, align 8, !tbaa !26
  %8 = getelementptr inbounds nuw %struct.rev_info, ptr %7, i32 0, i32 70
  %9 = load ptr, ptr %4, align 8, !tbaa !32
  %10 = getelementptr inbounds nuw %struct.commit, ptr %9, i32 0, i32 0
  %11 = call ptr @lookup_decoration(ptr noundef %8, ptr noundef %10)
  store ptr %11, ptr %5, align 8, !tbaa !81
  %12 = load ptr, ptr %5, align 8, !tbaa !81
  %13 = icmp ne ptr %12, null
  br i1 %13, label %15, label %14

14:                                               ; preds = %2
  store i32 1, ptr %6, align 4
  br label %22

15:                                               ; preds = %2
  %16 = load ptr, ptr %5, align 8, !tbaa !81
  call void @free_line_log_data(ptr noundef %16)
  %17 = load ptr, ptr %3, align 8, !tbaa !26
  %18 = getelementptr inbounds nuw %struct.rev_info, ptr %17, i32 0, i32 70
  %19 = load ptr, ptr %4, align 8, !tbaa !32
  %20 = getelementptr inbounds nuw %struct.commit, ptr %19, i32 0, i32 0
  %21 = call ptr @add_decoration(ptr noundef %18, ptr noundef %20, ptr noundef null)
  store i32 0, ptr %6, align 4
  br label %22

22:                                               ; preds = %15, %14
  call void @llvm.lifetime.end.p0(i64 8, ptr %5) #9
  %23 = load i32, ptr %6, align 4
  switch i32 %23, label %25 [
    i32 0, label %24
    i32 1, label %24
  ]

24:                                               ; preds = %22, %22
  ret void

25:                                               ; preds = %22
  unreachable
}