; Function Attrs: nounwind uwtable
define internal fastcc void @clear_commit_line_range(ptr noundef %0, ptr noundef %1) unnamed_addr #0 {
  %3 = getelementptr inbounds nuw i8, ptr %0, i64 2856
  %4 = tail call ptr @lookup_decoration(ptr noundef nonnull %3, ptr noundef %1) #16
  %.not = icmp eq ptr %4, null
  br i1 %.not, label %20, label %.lr.ph.i

.lr.ph.i:                                         ; preds = %2, %line_log_data_clear.exit.i
  %.06.i = phi ptr [ %5, %line_log_data_clear.exit.i ], [ %4, %2 ]
  %5 = load ptr, ptr %.06.i, align 8, !tbaa !118
  %6 = getelementptr inbounds nuw i8, ptr %.06.i, i64 16
  %7 = getelementptr inbounds nuw i8, ptr %.06.i, i64 24
  %8 = load ptr, ptr %7, align 8, !tbaa !11
  tail call void @free(ptr noundef %8) #16
  tail call void @llvm.memset.p0.i64(ptr noundef nonnull align 8 dereferenceable(16) %6, i8 0, i64 16, i1 false)
  %9 = getelementptr inbounds nuw i8, ptr %.06.i, i64 8
  %10 = load ptr, ptr %9, align 8, !tbaa !113
  tail call void @free(ptr noundef %10) #16
  %11 = getelementptr inbounds nuw i8, ptr %.06.i, i64 32
  %12 = load ptr, ptr %11, align 8, !tbaa !126
  %.not.i.i = icmp eq ptr %12, null
  br i1 %.not.i.i, label %line_log_data_clear.exit.i, label %13

13:                                               ; preds = %.lr.ph.i
  tail call void @diff_free_filepair(ptr noundef nonnull %12) #16
  br label %line_log_data_clear.exit.i

line_log_data_clear.exit.i:                       ; preds = %13, %.lr.ph.i
  %14 = getelementptr inbounds nuw i8, ptr %.06.i, i64 40
  %15 = getelementptr inbounds nuw i8, ptr %.06.i, i64 48
  %16 = load ptr, ptr %15, align 8, !tbaa !11
  tail call void @free(ptr noundef %16) #16
  tail call void @llvm.memset.p0.i64(ptr noundef nonnull align 8 dereferenceable(16) %14, i8 0, i64 16, i1 false)
  %17 = getelementptr inbounds nuw i8, ptr %.06.i, i64 64
  %18 = load ptr, ptr %17, align 8, !tbaa !11
  tail call void @free(ptr noundef %18) #16
  tail call void @free(ptr noundef nonnull %.06.i) #16
  %.not.i = icmp eq ptr %5, null
  br i1 %.not.i, label %free_line_log_data.exit, label %.lr.ph.i, !llvm.loop !127

free_line_log_data.exit:                          ; preds = %line_log_data_clear.exit.i
  %19 = tail call ptr @add_decoration(ptr noundef nonnull %3, ptr noundef %1, ptr noundef null) #16
  br label %20

20:                                               ; preds = %2, %free_line_log_data.exit
  ret void
}